
odd:     file format elf64-x86-64


Disassembly of section .text:

0000000000401000 <_start>:
  401000:	b8 01 00 00 00       	mov    $0x1,%eax
  401005:	bf 01 00 00 00       	mov    $0x1,%edi
  40100a:	48 be 00 20 40 00 00 	movabs $0x402000,%rsi
  401011:	00 00 00 
  401014:	ba 18 00 00 00       	mov    $0x18,%edx
  401019:	0f 05                	syscall 
  40101b:	b8 00 00 00 00       	mov    $0x0,%eax
  401020:	bf 00 00 00 00       	mov    $0x0,%edi
  401025:	48 be 44 20 40 00 00 	movabs $0x402044,%rsi
  40102c:	00 00 00 
  40102f:	ba 01 00 00 00       	mov    $0x1,%edx
  401034:	0f 05                	syscall 
  401036:	48 31 c0             	xor    %rax,%rax
  401039:	48 8b 04 25 44 20 40 	mov    0x402044,%rax
  401040:	00 
  401041:	48 a9 01 00 00 00    	test   $0x1,%rax
  401047:	75 0e                	jne    401057 <_start.handleOdd>
  401049:	eb 29                	jmp    401074 <_start.handleEven>

000000000040104b <..@exit_program>:
  40104b:	b8 3c 00 00 00       	mov    $0x3c,%eax
  401050:	bf 00 00 00 00       	mov    $0x0,%edi
  401055:	0f 05                	syscall 

0000000000401057 <_start.handleOdd>:
  401057:	b8 01 00 00 00       	mov    $0x1,%eax
  40105c:	bf 01 00 00 00       	mov    $0x1,%edi
  401061:	48 be 28 20 40 00 00 	movabs $0x402028,%rsi
  401068:	00 00 00 
  40106b:	ba 0d 00 00 00       	mov    $0xd,%edx
  401070:	0f 05                	syscall 
  401072:	eb d7                	jmp    40104b <..@exit_program>

0000000000401074 <_start.handleEven>:
  401074:	b8 01 00 00 00       	mov    $0x1,%eax
  401079:	bf 01 00 00 00       	mov    $0x1,%edi
  40107e:	48 be 35 20 40 00 00 	movabs $0x402035,%rsi
  401085:	00 00 00 
  401088:	ba 0e 00 00 00       	mov    $0xe,%edx
  40108d:	0f 05                	syscall 
  40108f:	eb ba                	jmp    40104b <..@exit_program>
